target datalayout = "e-m:e-p270:32:32-p271:32:32-p272:64:64-i64:64-i128:128-f80:128-n8:16:32:64-S128"
target triple = "x86_64-pc-linux-gnu"

%struct.H5FL_reg_head_t = type { i8, i32, i32, ptr, i64, ptr }
%struct.H5HL_prfx_t = type { %struct.H5C_cache_entry_t, ptr }
%struct.H5C_cache_entry_t = type { ptr, i64, i64, ptr, i8, ptr, i8, i8, i8, i8, i32, i8, i8, i8, i8, i8, i32, ptr, i32, i32, i32, i32, i32, i8, i8, ptr, ptr, ptr, ptr, ptr, ptr, i8, i32, i8, i64, ptr, i64, i64, i32, i8, i32, i32, i8, ptr, ptr, ptr }
%struct.H5HL_t = type { i64, i64, i64, i64, i8, ptr, ptr, i64, i64, i64, ptr, i64, i64, ptr }

@H5_H5HL_prfx_t_reg_free_list = internal global %struct.H5FL_reg_head_t { i8 0, i32 0, i32 0, ptr @.str.4, i64 256, ptr null }, align 8
@.str = private unnamed_addr constant [102 x i8] c"generated/home/dtcxzyw/WorkSpace/Projects/compilers/llvm-opt-benchmark/bench/hdf5/hdf5/src/H5HLprfx.c\00", align 1
@__func__.H5HL__prfx_new = private unnamed_addr constant [15 x i8] c"H5HL__prfx_new\00", align 1
@H5E_HEAP_g = external global i64, align 8
@H5E_CANTALLOC_g = external global i64, align 8
@.str.1 = private unnamed_addr constant [47 x i8] c"memory allocation failed for local heap prefix\00", align 1
@H5E_CANTINC_g = external global i64, align 8
@.str.2 = private unnamed_addr constant [32 x i8] c"can't increment heap ref. count\00", align 1
@__func__.H5HL__prfx_dest = private unnamed_addr constant [16 x i8] c"H5HL__prfx_dest\00", align 1
@H5E_CANTDEC_g = external global i64, align 8
@.str.3 = private unnamed_addr constant [32 x i8] c"can't decrement heap ref. count\00", align 1
@.str.4 = private unnamed_addr constant [12 x i8] c"H5HL_prfx_t\00", align 1

; Function Attrs: nounwind uwtable
define ptr @H5HL__prfx_new(ptr noundef %0) #0 {
  %2 = alloca ptr, align 8
  %3 = alloca ptr, align 8
  %4 = alloca ptr, align 8
  %5 = alloca i8, align 1
  store ptr %0, ptr %2, align 8
  store ptr null, ptr %3, align 8
  store ptr null, ptr %4, align 8
  store i8 0, ptr %5, align 1
  %6 = call noalias ptr @H5FL_reg_calloc(ptr noundef @H5_H5HL_prfx_t_reg_free_list)
  store ptr %6, ptr %3, align 8
  %7 = icmp eq ptr null, %6
  br i1 %7, label %8, label %23

8:                                                ; preds = %1
  br label %9

9:                                                ; preds = %8
  br label %10

10:                                               ; preds = %9
  br label %11

11:                                               ; preds = %10
  %12 = load i64, ptr @H5E_HEAP_g, align 8
  %13 = load i64, ptr @H5E_CANTALLOC_g, align 8
  %14 = call i32 (ptr, ptr, i32, i64, i64, ptr, ...) @H5E_printf_stack(ptr noundef @.str, ptr noundef @__func__.H5HL__prfx_new, i32 noundef 90, i64 noundef %12, i64 noundef %13, ptr noundef @.str.1)
  br label %15

15:                                               ; preds = %11
  store i8 1, ptr %5, align 1
  %16 = load i8, ptr %5, align 1
  %17 = trunc i8 %16 to i1
  %18 = zext i1 %17 to i8
  store i8 %18, ptr %5, align 1
  br label %19

19:                                               ; preds = %15
  br label %20

20:                                               ; preds = %19
  store ptr null, ptr %4, align 8
  br label %50

21:                                               ; No predecessors!
  br label %22

22:                                               ; preds = %21
  br label %23

23:                                               ; preds = %22, %1
  %24 = load ptr, ptr %2, align 8
  %25 = call i32 @H5HL__inc_rc(ptr noundef %24)
  %26 = icmp eq i32 -1, %25
  br i1 %26, label %27, label %42

27:                                               ; preds = %23
  br label %28

28:                                               ; preds = %27
  br label %29

29:                                               ; preds = %28
  br label %30

30:                                               ; preds = %29
  %31 = load i64, ptr @H5E_HEAP_g, align 8
  %32 = load i64, ptr @H5E_CANTINC_g, align 8
  %33 = call i32 (ptr, ptr, i32, i64, i64, ptr, ...) @H5E_printf_stack(ptr noundef @.str, ptr noundef @__func__.H5HL__prfx_new, i32 noundef 94, i64 noundef %31, i64 noundef %32, ptr noundef @.str.2)
  br label %34

34:                                               ; preds = %30
  store i8 1, ptr %5, align 1
  %35 = load i8, ptr %5, align 1
  %36 = trunc i8 %35 to i1
  %37 = zext i1 %36 to i8
  store i8 %37, ptr %5, align 1
  br label %38

38:                                               ; preds = %34
  br label %39

39:                                               ; preds = %38
  store ptr null, ptr %4, align 8
  br label %50

40:                                               ; No predecessors!
  br label %41

41:                                               ; preds = %40
  br label %42

42:                                               ; preds = %41, %23
  %43 = load ptr, ptr %2, align 8
  %44 = load ptr, ptr %3, align 8
  %45 = getelementptr inbounds %struct.H5HL_prfx_t, ptr %44, i32 0, i32 1
  store ptr %43, ptr %45, align 8
  %46 = load ptr, ptr %3, align 8
  %47 = load ptr, ptr %2, align 8
  %48 = getelementptr inbounds %struct.H5HL_t, ptr %47, i32 0, i32 6
  store ptr %46, ptr %48, align 8
  %49 = load ptr, ptr %3, align 8
  store ptr %49, ptr %4, align 8
  br label %50

50:                                               ; preds = %42, %39, %20
  %51 = load ptr, ptr %4, align 8
  %52 = icmp ne ptr %51, null
  br i1 %52, label %59, label %53

53:                                               ; preds = %50
  %54 = load ptr, ptr %3, align 8
  %55 = icmp ne ptr %54, null
  br i1 %55, label %56, label %59

56:                                               ; preds = %53
  %57 = load ptr, ptr %3, align 8
  %58 = call ptr @H5FL_reg_free(ptr noundef @H5_H5HL_prfx_t_reg_free_list, ptr noundef %57)
  store ptr %58, ptr %3, align 8
  br label %59

59:                                               ; preds = %56, %53, %50
  %60 = load ptr, ptr %4, align 8
  ret ptr %60
}

declare noalias ptr @H5FL_reg_calloc(ptr noundef) #1

declare i32 @H5E_printf_stack(ptr noundef, ptr noundef, i32 noundef, i64 noundef, i64 noundef, ptr noundef, ...) #1

declare i32 @H5HL__inc_rc(ptr noundef) #1

declare ptr @H5FL_reg_free(ptr noundef, ptr noundef) #1

; Function Attrs: nounwind uwtable
define i32 @H5HL__prfx_dest(ptr noundef %0) #0 {
  %2 = alloca ptr, align 8
  %3 = alloca i32, align 4
  %4 = alloca i8, align 1
  store ptr %0, ptr %2, align 8
  store i32 0, ptr %3, align 4
  store i8 0, ptr %4, align 1
  %5 = load ptr, ptr %2, align 8
  %6 = getelementptr inbounds %struct.H5HL_prfx_t, ptr %5, i32 0, i32 1
  %7 = load ptr, ptr %6, align 8
  %8 = icmp ne ptr %7, null
  br i1 %8, label %9, label %37

9:                                                ; preds = %1
  %10 = load ptr, ptr %2, align 8
  %11 = getelementptr inbounds %struct.H5HL_prfx_t, ptr %10, i32 0, i32 1
  %12 = load ptr, ptr %11, align 8
  %13 = getelementptr inbounds %struct.H5HL_t, ptr %12, i32 0, i32 6
  store ptr null, ptr %13, align 8
  %14 = load ptr, ptr %2, align 8
  %15 = getelementptr inbounds %struct.H5HL_prfx_t, ptr %14, i32 0, i32 1
  %16 = load ptr, ptr %15, align 8
  %17 = call i32 @H5HL__dec_rc(ptr noundef %16)
  %18 = icmp eq i32 -1, %17
  br i1 %18, label %19, label %34

19:                                               ; preds = %9
  br label %20

20:                                               ; preds = %19
  br label %21

21:                                               ; preds = %20
  br label %22

22:                                               ; preds = %21
  %23 = load i64, ptr @H5E_HEAP_g, align 8
  %24 = load i64, ptr @H5E_CANTDEC_g, align 8
  %25 = call i32 (ptr, ptr, i32, i64, i64, ptr, ...) @H5E_printf_stack(ptr noundef @.str, ptr noundef @__func__.H5HL__prfx_dest, i32 noundef 138, i64 noundef %23, i64 noundef %24, ptr noundef @.str.3)
  br label %26

26:                                               ; preds = %22
  store i8 1, ptr %4, align 1
  %27 = load i8, ptr %4, align 1
  %28 = trunc i8 %27 to i1
  %29 = zext i1 %28 to i8
  store i8 %29, ptr %4, align 1
  br label %30

30:                                               ; preds = %26
  br label %31

31:                                               ; preds = %30
  store i32 -1, ptr %3, align 4
  br label %38

32:                                               ; No predecessors!
  br label %33

33:                                               ; preds = %32
  br label %34

34:                                               ; preds = %33, %9
  %35 = load ptr, ptr %2, align 8
  %36 = getelementptr inbounds %struct.H5HL_prfx_t, ptr %35, i32 0, i32 1
  store ptr null, ptr %36, align 8
  br label %37

37:                                               ; preds = %34, %1
  br label %38

38:                                               ; preds = %37, %31
  %39 = load ptr, ptr %2, align 8
  %40 = call ptr @H5FL_reg_free(ptr noundef @H5_H5HL_prfx_t_reg_free_list, ptr noundef %39)
  store ptr %40, ptr %2, align 8
  %41 = load i32, ptr %3, align 4
  ret i32 %41
}

declare i32 @H5HL__dec_rc(ptr noundef) #1


!llvm.module.flags = !{!0, !1, !2, !3}

!0 = !{i32 1, !"wchar_size", i32 4}
!1 = !{i32 8, !"PIC Level", i32 2}
!2 = !{i32 7, !"uwtable", i32 2}
!3 = !{i32 7, !"frame-pointer", i32 2}
